target datalayout = "e-m:e-p270:32:32-p271:32:32-p272:64:64-i64:64-i128:128-f80:128-n8:16:32:64-S128"
target triple = "x86_64-pc-linux-gnu"

; Function Attrs: inlinehint nounwind uwtable
define internal i32 @Abc_LitNotCond(i32 noundef %0, i32 noundef %1) #1 {
  %3 = alloca i32, align 4
  %4 = alloca i32, align 4
  store i32 %0, ptr %3, align 4, !tbaa !8
  store i32 %1, ptr %4, align 4, !tbaa !8
  %5 = load i32, ptr %3, align 4, !tbaa !8
  %6 = load i32, ptr %4, align 4, !tbaa !8
  %7 = icmp sgt i32 %6, 0
  %8 = zext i1 %7 to i32
  %9 = xor i32 %5, %8
  ret i32 %9
}

; Function Attrs: nounwind uwtable
define i32 @Gia_ManCube(ptr noundef %0, i32 noundef %1, i32 noundef %2, ptr noundef %3) #0 {
  %5 = alloca ptr, align 8
  %6 = alloca i32, align 4
  %7 = alloca i32, align 4
  %8 = alloca ptr, align 8
  %9 = alloca i32, align 4
  %10 = alloca i32, align 4
  store ptr %0, ptr %5, align 8, !tbaa !3
  store i32 %1, ptr %6, align 4, !tbaa !8
  store i32 %2, ptr %7, align 4, !tbaa !8
  store ptr %3, ptr %8, align 8, !tbaa !10
  call void @llvm.lifetime.start.p0(i64 4, ptr %9) #12
  call void @llvm.lifetime.start.p0(i64 4, ptr %10) #12
  store i32 1, ptr %10, align 4, !tbaa !8
  store i32 0, ptr %9, align 4, !tbaa !8
  br label %11

11:                                               ; preds = %32, %4
  %12 = load i32, ptr %9, align 4, !tbaa !8
  %13 = load i32, ptr %7, align 4, !tbaa !8
  %14 = icmp slt i32 %12, %13
  br i1 %14, label %15, label %35

15:                                               ; preds = %11
  %16 = load ptr, ptr %5, align 8, !tbaa !3
  %17 = load i32, ptr %10, align 4, !tbaa !8
  %18 = load ptr, ptr %8, align 8, !tbaa !10
  %19 = load i32, ptr %9, align 4, !tbaa !8
  %20 = sext i32 %19 to i64
  %21 = getelementptr inbounds i32, ptr %18, i64 %20
  %22 = load i32, ptr %21, align 4, !tbaa !8
  %23 = load i32, ptr %6, align 4, !tbaa !8
  %24 = load i32, ptr %9, align 4, !tbaa !8
  %25 = ashr i32 %23, %24
  %26 = and i32 %25, 1
  %27 = icmp ne i32 %26, 0
  %28 = xor i1 %27, true
  %29 = zext i1 %28 to i32
  %30 = call i32 @Abc_LitNotCond(i32 noundef %22, i32 noundef %29)
  %31 = call i32 @Gia_ManHashAnd(ptr noundef %16, i32 noundef %17, i32 noundef %30)
  store i32 %31, ptr %10, align 4, !tbaa !8
  br label %32

32:                                               ; preds = %15
  %33 = load i32, ptr %9, align 4, !tbaa !8
  %34 = add nsw i32 %33, 1
  store i32 %34, ptr %9, align 4, !tbaa !8
  br label %11, !llvm.loop !85

35:                                               ; preds = %11
  %36 = load i32, ptr %10, align 4, !tbaa !8
  call void @llvm.lifetime.end.p0(i64 4, ptr %10) #12
  call void @llvm.lifetime.end.p0(i64 4, ptr %9) #12
  ret i32 %36
}

; Function Attrs: nounwind uwtable
define i32 @Gia_ManDecompOne(ptr noundef %0, ptr noundef %1, i32 noundef %2, ptr noundef %3, i32 noundef %4) #0 {
  %6 = alloca ptr, align 8
  %7 = alloca ptr, align 8
  %8 = alloca i32, align 4
  %9 = alloca ptr, align 8
  %10 = alloca i32, align 4
  %11 = alloca i32, align 4
  %12 = alloca i32, align 4
  store ptr %0, ptr %6, align 8, !tbaa !3
  store ptr %1, ptr %7, align 8, !tbaa !10
  store i32 %2, ptr %8, align 4, !tbaa !8
  store ptr %3, ptr %9, align 8, !tbaa !10
  store i32 %4, ptr %10, align 4, !tbaa !8
  call void @llvm.lifetime.start.p0(i64 4, ptr %11) #12
  call void @llvm.lifetime.start.p0(i64 4, ptr %12) #12
  %13 = load ptr, ptr %7, align 8, !tbaa !10
  %14 = load i32, ptr %8, align 4, !tbaa !8
  %15 = load i32, ptr %10, align 4, !tbaa !8
  %16 = add nsw i32 %14, %15
  %17 = sext i32 %16 to i64
  %18 = getelementptr inbounds i32, ptr %13, i64 %17
  %19 = load i32, ptr %18, align 4, !tbaa !8
  store i32 %19, ptr %12, align 4, !tbaa !8
  %20 = load ptr, ptr %7, align 8, !tbaa !10
  %21 = load i32, ptr %8, align 4, !tbaa !8
  %22 = load i32, ptr %10, align 4, !tbaa !8
  %23 = xor i32 %22, 1
  %24 = add nsw i32 %21, %23
  %25 = sext i32 %24 to i64
  %26 = getelementptr inbounds i32, ptr %20, i64 %25
  %27 = load i32, ptr %26, align 4, !tbaa !8
  %28 = load ptr, ptr %7, align 8, !tbaa !10
  %29 = load i32, ptr %8, align 4, !tbaa !8
  %30 = load i32, ptr %10, align 4, !tbaa !8
  %31 = add nsw i32 %29, %30
  %32 = sext i32 %31 to i64
  %33 = getelementptr inbounds i32, ptr %28, i64 %32
  store i32 %27, ptr %33, align 4, !tbaa !8
  %34 = load ptr, ptr %6, align 8, !tbaa !3
  %35 = load ptr, ptr %7, align 8, !tbaa !10
  %36 = load i32, ptr %8, align 4, !tbaa !8
  %37 = load ptr, ptr %7, align 8, !tbaa !10
  %38 = load i32, ptr %8, align 4, !tbaa !8
  %39 = sext i32 %38 to i64
  %40 = getelementptr inbounds i32, ptr %37, i64 %39
  %41 = call i32 @Gia_ManMuxTree_rec(ptr noundef %34, ptr noundef %35, i32 noundef %36, ptr noundef %40)
  store i32 %41, ptr %11, align 4, !tbaa !8
  %42 = load ptr, ptr %6, align 8, !tbaa !3
  %43 = load ptr, ptr %6, align 8, !tbaa !3
  %44 = load i32, ptr %10, align 4, !tbaa !8
  %45 = load i32, ptr %8, align 4, !tbaa !8
  %46 = load ptr, ptr %7, align 8, !tbaa !10
  %47 = call i32 @Gia_ManCube(ptr noundef %43, i32 noundef %44, i32 noundef %45, ptr noundef %46)
  %48 = load i32, ptr %12, align 4, !tbaa !8
  %49 = load i32, ptr %11, align 4, !tbaa !8
  %50 = call i32 @Gia_ManHashMux(ptr noundef %42, i32 noundef %47, i32 noundef %48, i32 noundef %49)
  call void @llvm.lifetime.end.p0(i64 4, ptr %12) #12
  call void @llvm.lifetime.end.p0(i64 4, ptr %11) #12
  ret i32 %50
}