; Function Attrs: nounwind uwtable
define i32 @Gia_ManDecompOne(ptr noundef %0, ptr noundef %1, i32 noundef %2, ptr noundef readnone captures(none) %3, i32 noundef %4) local_unnamed_addr #2 {
  %6 = add nsw i32 %4, %2
  %7 = sext i32 %6 to i64
  %8 = getelementptr inbounds i32, ptr %1, i64 %7
  %9 = load i32, ptr %8, align 4, !tbaa !11
  %10 = xor i32 %4, 1
  %11 = add nsw i32 %10, %2
  %12 = sext i32 %11 to i64
  %13 = getelementptr inbounds i32, ptr %1, i64 %12
  %14 = load i32, ptr %13, align 4, !tbaa !11
  store i32 %14, ptr %8, align 4, !tbaa !11
  %15 = sext i32 %2 to i64
  %16 = getelementptr inbounds i32, ptr %1, i64 %15
  %17 = tail call i32 @Gia_ManMuxTree_rec(ptr noundef %0, ptr noundef %1, i32 noundef %2, ptr noundef %16)
  %18 = icmp sgt i32 %2, 0
  br i1 %18, label %.lr.ph.i, label %Gia_ManCube.exit

.lr.ph.i:                                         ; preds = %5
  %19 = xor i32 %4, -1
  %wide.trip.count.i = zext nneg i32 %2 to i64
  br label %20

20:                                               ; preds = %20, %.lr.ph.i
  %indvars.iv.i = phi i64 [ 0, %.lr.ph.i ], [ %indvars.iv.next.i, %20 ]
  %.011.i = phi i32 [ 1, %.lr.ph.i ], [ %27, %20 ]
  %21 = getelementptr inbounds nuw i32, ptr %1, i64 %indvars.iv.i
  %22 = load i32, ptr %21, align 4, !tbaa !11
  %23 = trunc nuw nsw i64 %indvars.iv.i to i32
  %24 = lshr i32 %19, %23
  %25 = and i32 %24, 1
  %26 = xor i32 %25, %22
  %27 = tail call i32 @Gia_ManHashAnd(ptr noundef %0, i32 noundef %.011.i, i32 noundef %26)
  %indvars.iv.next.i = add nuw nsw i64 %indvars.iv.i, 1
  %exitcond.not.i = icmp eq i64 %indvars.iv.next.i, %wide.trip.count.i
  br i1 %exitcond.not.i, label %Gia_ManCube.exit, label %20, !llvm.loop !78

Gia_ManCube.exit:                                 ; preds = %20, %5
  %.0.lcssa.i = phi i32 [ 1, %5 ], [ %27, %20 ]
  %28 = tail call i32 @Gia_ManHashMux(ptr noundef %0, i32 noundef %.0.lcssa.i, i32 noundef %9, i32 noundef %17)
  ret i32 %28
}